target datalayout = "e-m:e-p270:32:32-p271:32:32-p272:64:64-i64:64-i128:128-f80:128-n8:16:32:64-S128"
target triple = "x86_64-pc-linux-gnu"

@_ZN6icu_77L28gTemporalMonthCodesForHebrewE = internal constant [14 x ptr] [ptr @.str.3, ptr @.str.4, ptr @.str.5, ptr @.str.6, ptr @.str.7, ptr @.str.8, ptr @.str.9, ptr @.str.10, ptr @.str.11, ptr @.str.12, ptr @.str.13, ptr @.str.14, ptr @.str.15, ptr null], align 16

; Function Attrs: inlinehint mustprogress nounwind uwtable
define internal noundef signext i8 @_ZL9U_FAILURE10UErrorCode(i32 noundef %0) #4 {
  %2 = alloca i32, align 4
  store i32 %0, ptr %2, align 4, !tbaa !17
  %3 = load i32, ptr %2, align 4, !tbaa !17
  %4 = icmp sgt i32 %3, 0
  %5 = zext i1 %4 to i8
  ret i8 %5
}

; Function Attrs: mustprogress uwtable
define void @_ZN6icu_7714HebrewCalendar20setTemporalMonthCodeEPKcR10UErrorCode(ptr noundef nonnull align 8 dereferenceable(192) %0, ptr noundef %1, ptr noundef nonnull align 4 dereferenceable(4) %2) unnamed_addr #0 align 2 {
  %4 = alloca ptr, align 8
  %5 = alloca ptr, align 8
  %6 = alloca ptr, align 8
  %7 = alloca i32, align 4
  %8 = alloca i32, align 4
  %9 = alloca i32, align 4
  store ptr %0, ptr %4, align 8, !tbaa !3
  store ptr %1, ptr %5, align 8, !tbaa !43
  store ptr %2, ptr %6, align 8, !tbaa !10
  %10 = load ptr, ptr %4, align 8
  %11 = load ptr, ptr %6, align 8, !tbaa !10
  %12 = load i32, ptr %11, align 4, !tbaa !17
  %13 = call noundef signext i8 @_ZL9U_FAILURE10UErrorCode(i32 noundef %12)
  %14 = icmp ne i8 %13, 0
  br i1 %14, label %15, label %16

15:                                               ; preds = %3
  br label %54

16:                                               ; preds = %3
  call void @llvm.lifetime.start.p0(i64 4, ptr %7) #11
  %17 = load ptr, ptr %5, align 8, !tbaa !43
  %18 = call i64 @strlen(ptr noundef %17) #12
  %19 = trunc i64 %18 to i32
  store i32 %19, ptr %7, align 4, !tbaa !15
  %20 = load i32, ptr %7, align 4, !tbaa !15
  %21 = icmp eq i32 %20, 3
  br i1 %21, label %25, label %22

22:                                               ; preds = %16
  %23 = load i32, ptr %7, align 4, !tbaa !15
  %24 = icmp eq i32 %23, 4
  br i1 %24, label %25, label %50

25:                                               ; preds = %22, %16
  call void @llvm.lifetime.start.p0(i64 4, ptr %8) #11
  store i32 0, ptr %8, align 4, !tbaa !15
  br label %26

26:                                               ; preds = %44, %25
  %27 = load i32, ptr %8, align 4, !tbaa !15
  %28 = sext i32 %27 to i64
  %29 = getelementptr inbounds [14 x ptr], ptr @_ZN6icu_77L28gTemporalMonthCodesForHebrewE, i64 0, i64 %28
  %30 = load ptr, ptr %29, align 8, !tbaa !43
  %31 = icmp ne ptr %30, null
  br i1 %31, label %33, label %32

32:                                               ; preds = %26
  store i32 2, ptr %9, align 4
  br label %47

33:                                               ; preds = %26
  %34 = load ptr, ptr %5, align 8, !tbaa !43
  %35 = load i32, ptr %8, align 4, !tbaa !15
  %36 = sext i32 %35 to i64
  %37 = getelementptr inbounds [14 x ptr], ptr @_ZN6icu_77L28gTemporalMonthCodesForHebrewE, i64 0, i64 %36
  %38 = load ptr, ptr %37, align 8, !tbaa !43
  %39 = call i32 @strcmp(ptr noundef %34, ptr noundef %38) #12
  %40 = icmp eq i32 %39, 0
  br i1 %40, label %41, label %43

41:                                               ; preds = %33
  %42 = load i32, ptr %8, align 4, !tbaa !15
  call void @_ZN6icu_778Calendar3setE19UCalendarDateFieldsi(ptr noundef nonnull align 8 dereferenceable(192) %10, i32 noundef 2, i32 noundef %42)
  store i32 1, ptr %9, align 4
  br label %47

43:                                               ; preds = %33
  br label %44

44:                                               ; preds = %43
  %45 = load i32, ptr %8, align 4, !tbaa !15
  %46 = add nsw i32 %45, 1
  store i32 %46, ptr %8, align 4, !tbaa !15
  br label %26, !llvm.loop !45

47:                                               ; preds = %41, %32
  call void @llvm.lifetime.end.p0(i64 4, ptr %8) #11
  %48 = load i32, ptr %9, align 4
  switch i32 %48, label %52 [
    i32 2, label %49
  ]

49:                                               ; preds = %47
  br label %50

50:                                               ; preds = %49, %22
  %51 = load ptr, ptr %6, align 8, !tbaa !10
  store i32 1, ptr %51, align 4, !tbaa !17
  store i32 0, ptr %9, align 4
  br label %52

52:                                               ; preds = %50, %47
  call void @llvm.lifetime.end.p0(i64 4, ptr %7) #11
  %53 = load i32, ptr %9, align 4
  switch i32 %53, label %55 [
    i32 0, label %54
    i32 1, label %54
  ]

54:                                               ; preds = %15, %52, %52
  ret void

55:                                               ; preds = %52
  unreachable
}