; Function Attrs: mustprogress uwtable
define void @_ZN6icu_7714HebrewCalendar20setTemporalMonthCodeEPKcR10UErrorCode(ptr noundef nonnull align 8 dereferenceable(192) %0, ptr noundef readonly captures(none) %1, ptr noundef nonnull align 4 captures(none) dereferenceable(4) %2) unnamed_addr #0 align 2 {
  %4 = load i32, ptr %2, align 4, !tbaa !6
  %5 = icmp slt i32 %4, 1
  br i1 %5, label %6, label %17

6:                                                ; preds = %3
  %7 = tail call i64 @strlen(ptr noundef nonnull dereferenceable(1) %1) #9
  %8 = trunc i64 %7 to i32
  %9 = add i32 %8, -3
  %or.cond = icmp ult i32 %9, 2
  br i1 %or.cond, label %.preheader, label %.critedge

.preheader:                                       ; preds = %6, %16
  %indvars.iv = phi i64 [ %indvars.iv.next, %16 ], [ 0, %6 ]
  %10 = getelementptr inbounds nuw [14 x ptr], ptr @_ZN6icu_77L28gTemporalMonthCodesForHebrewE, i64 0, i64 %indvars.iv
  %11 = load ptr, ptr %10, align 8, !tbaa !25
  %12 = tail call i32 @strcmp(ptr noundef nonnull dereferenceable(1) %1, ptr noundef nonnull dereferenceable(1) %11) #9
  %13 = icmp eq i32 %12, 0
  br i1 %13, label %14, label %16

14:                                               ; preds = %.preheader
  %15 = trunc nuw nsw i64 %indvars.iv to i32
  tail call void @_ZN6icu_778Calendar3setE19UCalendarDateFieldsi(ptr noundef nonnull align 8 dereferenceable(192) %0, i32 noundef 2, i32 noundef %15)
  br label %17

16:                                               ; preds = %.preheader
  %indvars.iv.next = add nuw nsw i64 %indvars.iv, 1
  %.not14 = icmp eq i64 %indvars.iv.next, 13
  br i1 %.not14, label %.critedge, label %.preheader, !llvm.loop !28

.critedge:                                        ; preds = %16, %6
  store i32 1, ptr %2, align 4, !tbaa !6
  br label %17

17:                                               ; preds = %14, %.critedge, %3
  ret void
}